target datalayout = "e-m:e-p270:32:32-p271:32:32-p272:64:64-i64:64-i128:128-f80:128-n8:16:32:64-S128"
target triple = "x86_64-pc-linux-gnu"

; Function Attrs: nounwind uwtable
define hidden void @av1_read_frame_size(ptr noundef %0, i32 noundef %1, i32 noundef %2, ptr noundef %3, ptr noundef %4) #0 {
  %6 = alloca ptr, align 8
  %7 = alloca i32, align 4
  %8 = alloca i32, align 4
  %9 = alloca ptr, align 8
  %10 = alloca ptr, align 8
  store ptr %0, ptr %6, align 8
  store i32 %1, ptr %7, align 4
  store i32 %2, ptr %8, align 4
  store ptr %3, ptr %9, align 8
  store ptr %4, ptr %10, align 8
  %11 = load ptr, ptr %6, align 8
  %12 = load i32, ptr %7, align 4
  %13 = call i32 @aom_rb_read_literal(ptr noundef %11, i32 noundef %12)
  %14 = add nsw i32 %13, 1
  %15 = load ptr, ptr %9, align 8
  store i32 %14, ptr %15, align 4
  %16 = load ptr, ptr %6, align 8
  %17 = load i32, ptr %8, align 4
  %18 = call i32 @aom_rb_read_literal(ptr noundef %16, i32 noundef %17)
  %19 = add nsw i32 %18, 1
  %20 = load ptr, ptr %10, align 8
  store i32 %19, ptr %20, align 4
  ret void
}