; Function Attrs: nounwind uwtable
define hidden void @av1_read_frame_size(ptr noundef %0, i32 noundef %1, i32 noundef %2, ptr noundef writeonly captures(none) initializes((0, 4)) %3, ptr noundef writeonly captures(none) initializes((0, 4)) %4) local_unnamed_addr #0 {
  %6 = tail call i32 @aom_rb_read_literal(ptr noundef %0, i32 noundef %1) #16
  %7 = add nsw i32 %6, 1
  store i32 %7, ptr %3, align 4
  %8 = tail call i32 @aom_rb_read_literal(ptr noundef %0, i32 noundef %2) #16
  %9 = add nsw i32 %8, 1
  store i32 %9, ptr %4, align 4
  ret void
}